; Function Attrs: nounwind sspstrong uwtable
define internal void @ivshmem_doorbell_class_init(ptr noundef %klass, ptr readnone captures(none) %data) #0 {
entry:
  %call.i = tail call ptr @object_class_dynamic_cast_assert(ptr noundef %klass, ptr noundef nonnull @.str.4, ptr noundef nonnull @.str.5, i32 noundef 77, ptr noundef nonnull @__func__.DEVICE_CLASS) #11
  %call.i3 = tail call ptr @object_class_dynamic_cast_assert(ptr noundef %klass, ptr noundef nonnull @.str.1, ptr noundef nonnull @.str.6, i32 noundef 10, ptr noundef nonnull @__func__.PCI_DEVICE_CLASS) #11
  %realize = getelementptr inbounds nuw i8, ptr %call.i3, i64 176
  store ptr @ivshmem_doorbell_realize, ptr %realize, align 8
  tail call void @device_class_set_props(ptr noundef %call.i, ptr noundef nonnull @ivshmem_doorbell_properties) #11
  %vmsd = getelementptr inbounds nuw i8, ptr %call.i, i64 160
  store ptr @ivshmem_doorbell_vmsd, ptr %vmsd, align 8
  ret void
}